; Function Attrs: mustprogress uwtable
define void @_ZN32pxrInternal_v0_24__pxrReserved__8SdfLayer13GetPrimAtPathERKNS_7SdfPathE(ptr dead_on_unwind noalias writable sret(%"class.pxrInternal_v0_24__pxrReserved__::SdfHandle") align 8 %0, ptr noundef nonnull align 8 dereferenceable(557) %1, ptr noundef nonnull align 4 dereferenceable(8) %2) local_unnamed_addr #3 align 2 personality ptr @__gxx_personality_v0 {
  %4 = alloca %"class.pxrInternal_v0_24__pxrReserved__::TfDelegatedCountPtr", align 8
  %5 = tail call noundef nonnull align 4 dereferenceable(8) ptr @_ZN32pxrInternal_v0_24__pxrReserved__7SdfPath16AbsoluteRootPathEv()
  %.0.copyload.i.i = load i64, ptr %2, align 4
  %.0.copyload.i2.i = load i64, ptr %5, align 4
  %6 = icmp eq i64 %.0.copyload.i.i, %.0.copyload.i2.i
  br i1 %6, label %7, label %18

7:                                                ; preds = %3
  tail call void @llvm.experimental.noalias.scope.decl(metadata !190)
  call void @llvm.lifetime.start.p0(i64 8, ptr nonnull %4)
  %8 = getelementptr inbounds nuw i8, ptr %1, i64 112
  %9 = tail call noundef nonnull align 4 dereferenceable(8) ptr @_ZN32pxrInternal_v0_24__pxrReserved__7SdfPath16AbsoluteRootPathEv(), !noalias !190
  call void @_ZN32pxrInternal_v0_24__pxrReserved__20Sdf_IdentityRegistry8IdentifyERKNS_7SdfPathE(ptr dead_on_unwind nonnull writable sret(%"class.pxrInternal_v0_24__pxrReserved__::TfDelegatedCountPtr") align 8 %4, ptr noundef nonnull align 8 dereferenceable(24) %8, ptr noundef nonnull align 4 dereferenceable(8) %9), !noalias !190
  %10 = load ptr, ptr %4, align 8, !noalias !190
  store ptr %10, ptr %0, align 8, !alias.scope !190
  %.not.i.i.i.i.i.i = icmp eq ptr %10, null
  br i1 %.not.i.i.i.i.i.i, label %_ZNK32pxrInternal_v0_24__pxrReserved__8SdfLayer13GetPseudoRootEv.exit, label %_ZN32pxrInternal_v0_24__pxrReserved__9SdfHandleINS_11SdfPrimSpecEEC2ERKNS_19TfDelegatedCountPtrINS_12Sdf_IdentityEEE.exit.i

_ZN32pxrInternal_v0_24__pxrReserved__9SdfHandleINS_11SdfPrimSpecEEC2ERKNS_19TfDelegatedCountPtrINS_12Sdf_IdentityEEE.exit.i: ; preds = %7
  %11 = atomicrmw add ptr %10, i32 1 seq_cst, align 4, !noalias !190
  %.pr.i = load ptr, ptr %4, align 8, !noalias !190
  %.not.i.i.i = icmp eq ptr %.pr.i, null
  br i1 %.not.i.i.i, label %_ZNK32pxrInternal_v0_24__pxrReserved__8SdfLayer13GetPseudoRootEv.exit, label %12

12:                                               ; preds = %_ZN32pxrInternal_v0_24__pxrReserved__9SdfHandleINS_11SdfPrimSpecEEC2ERKNS_19TfDelegatedCountPtrINS_12Sdf_IdentityEEE.exit.i
  %13 = getelementptr inbounds nuw i8, ptr %.pr.i, i64 16
  %14 = load ptr, ptr %13, align 8, !noalias !190
  %15 = atomicrmw sub ptr %.pr.i, i32 1 seq_cst, align 4, !noalias !190
  %16 = icmp eq i32 %15, 1
  br i1 %16, label %17, label %_ZNK32pxrInternal_v0_24__pxrReserved__8SdfLayer13GetPseudoRootEv.exit

17:                                               ; preds = %12
  call void @_ZN32pxrInternal_v0_24__pxrReserved__12Sdf_Identity19_UnregisterOrDeleteEPNS_18Sdf_IdRegistryImplEPS0_(ptr noundef %14, ptr noundef nonnull %.pr.i) #33, !noalias !190
  br label %_ZNK32pxrInternal_v0_24__pxrReserved__8SdfLayer13GetPseudoRootEv.exit

_ZNK32pxrInternal_v0_24__pxrReserved__8SdfLayer13GetPseudoRootEv.exit: ; preds = %7, %_ZN32pxrInternal_v0_24__pxrReserved__9SdfHandleINS_11SdfPrimSpecEEC2ERKNS_19TfDelegatedCountPtrINS_12Sdf_IdentityEEE.exit.i, %12, %17
  call void @llvm.lifetime.end.p0(i64 8, ptr nonnull %4)
  br label %19

18:                                               ; preds = %3
  tail call void @_ZN32pxrInternal_v0_24__pxrReserved__8SdfLayer14_GetSpecAtPathINS_11SdfPrimSpecEEENS_9SdfHandleIT_EERKNS_7SdfPathE(ptr dead_on_unwind writable sret(%"class.pxrInternal_v0_24__pxrReserved__::SdfHandle") align 8 %0, ptr noundef nonnull align 8 dereferenceable(557) %1, ptr noundef nonnull align 4 dereferenceable(8) %2)
  br label %19

19:                                               ; preds = %18, %_ZNK32pxrInternal_v0_24__pxrReserved__8SdfLayer13GetPseudoRootEv.exit
  ret void
}